; Function Attrs: nounwind uwtable
define ptr @l_Std_DTreeMap_Internal_Impl_Const_getD___at_Lean_Server_References_updateWorkerRefs___spec__3(ptr noundef %0, ptr noundef %1, ptr noundef %2) local_unnamed_addr #0 {
  br label %lean_inc.exit18

lean_inc.exit18:                                  ; preds = %lean_inc.exit18.backedge, %3
  %.016 = phi ptr [ %0, %3 ], [ %.016.be, %lean_inc.exit18.backedge ]
  %4 = ptrtoint ptr %.016 to i64
  %5 = and i64 %4, 1
  %.not.i = icmp eq i64 %5, 0
  br i1 %.not.i, label %9, label %6

6:                                                ; preds = %lean_inc.exit18
  %7 = lshr i64 %4, 1
  %8 = trunc i64 %7 to i32
  br label %lean_obj_tag.exit

9:                                                ; preds = %lean_inc.exit18
  %10 = getelementptr i8, ptr %.016, i64 4
  %.val.i = load i32, ptr %10, align 4
  %11 = lshr i32 %.val.i, 24
  br label %lean_obj_tag.exit

lean_obj_tag.exit:                                ; preds = %6, %9
  %.0.i = phi i32 [ %8, %6 ], [ %11, %9 ]
  %12 = icmp eq i32 %.0.i, 0
  br i1 %12, label %13, label %33

13:                                               ; preds = %lean_obj_tag.exit
  %14 = getelementptr inbounds nuw i8, ptr %.016, i64 16
  %15 = load ptr, ptr %14, align 8, !tbaa !4
  %16 = getelementptr inbounds nuw i8, ptr %.016, i64 24
  %17 = load ptr, ptr %16, align 8, !tbaa !4
  %18 = getelementptr inbounds nuw i8, ptr %.016, i64 32
  %19 = load ptr, ptr %18, align 8, !tbaa !4
  %20 = getelementptr inbounds nuw i8, ptr %.016, i64 40
  %21 = load ptr, ptr %20, align 8, !tbaa !4
  %22 = tail call zeroext i8 @l___private_Lean_Data_Lsp_Internal_0__Lean_Lsp_ordRefIdent____x40_Lean_Data_Lsp_Internal___hyg_232_(ptr noundef %1, ptr noundef %15) #8
  switch i8 %22, label %32 [
    i8 0, label %lean_inc.exit18.backedge
    i8 1, label %23
  ]

lean_inc.exit18.backedge:                         ; preds = %13, %32
  %.016.be = phi ptr [ %21, %32 ], [ %19, %13 ]
  br label %lean_inc.exit18

23:                                               ; preds = %13
  %24 = ptrtoint ptr %17 to i64
  %25 = and i64 %24, 1
  %.not29 = icmp eq i64 %25, 0
  br i1 %.not29, label %26, label %lean_inc.exit

26:                                               ; preds = %23
  %.val.i19 = load i32, ptr %17, align 4, !tbaa !8
  %27 = icmp sgt i32 %.val.i19, 0
  br i1 %27, label %28, label %30, !prof !11

28:                                               ; preds = %26
  %29 = add nuw i32 %.val.i19, 1
  store i32 %29, ptr %17, align 4, !tbaa !8
  br label %lean_inc.exit

30:                                               ; preds = %26
  %.not.i20 = icmp eq i32 %.val.i19, 0
  br i1 %.not.i20, label %lean_inc.exit, label %31

31:                                               ; preds = %30
  tail call void @lean_inc_ref_cold(ptr noundef nonnull %17) #8
  br label %lean_inc.exit

32:                                               ; preds = %13
  br label %lean_inc.exit18.backedge

33:                                               ; preds = %lean_obj_tag.exit
  %34 = ptrtoint ptr %2 to i64
  %35 = and i64 %34, 1
  %.not = icmp eq i64 %35, 0
  br i1 %.not, label %36, label %lean_inc.exit

36:                                               ; preds = %33
  %.val.i21 = load i32, ptr %2, align 4, !tbaa !8
  %37 = icmp sgt i32 %.val.i21, 0
  br i1 %37, label %38, label %40, !prof !11

38:                                               ; preds = %36
  %39 = add nuw i32 %.val.i21, 1
  store i32 %39, ptr %2, align 4, !tbaa !8
  br label %lean_inc.exit

40:                                               ; preds = %36
  %.not.i22 = icmp eq i32 %.val.i21, 0
  br i1 %.not.i22, label %lean_inc.exit, label %41

41:                                               ; preds = %40
  tail call void @lean_inc_ref_cold(ptr noundef nonnull %2) #8
  br label %lean_inc.exit

lean_inc.exit:                                    ; preds = %23, %28, %30, %31, %33, %38, %40, %41
  %.2 = phi ptr [ %2, %41 ], [ %2, %40 ], [ %2, %38 ], [ %2, %33 ], [ %17, %31 ], [ %17, %30 ], [ %17, %28 ], [ %17, %23 ]
  ret ptr %.2
}